; Function Attrs: nounwind sspstrong uwtable
define internal void @block_dirty_bitmap_restore(ptr noundef readonly captures(none) %0) #0 {
  %2 = getelementptr inbounds nuw i8, ptr %0, i64 16
  %3 = load ptr, ptr %2, align 8
  %.not = icmp eq ptr %3, null
  br i1 %.not, label %6, label %4

4:                                                ; preds = %1
  %5 = load ptr, ptr %0, align 8
  tail call void @bdrv_restore_dirty_bitmap(ptr noundef %5, ptr noundef nonnull %3) #14
  br label %6

6:                                                ; preds = %4, %1
  ret void
}